target datalayout = "e-m:e-p270:32:32-p271:32:32-p272:64:64-i64:64-i128:128-f80:128-n8:16:32:64-S128"
target triple = "x86_64-pc-linux-gnu"

%struct.AVIOContext = type { ptr, ptr, i32, ptr, ptr, ptr, ptr, ptr, ptr, i64, i32, i32, i32, i32, i32, i64, ptr, ptr, ptr, ptr, i32, i32, ptr, ptr, ptr, i32, ptr, i64, i64 }

; Function Attrs: nounwind uwtable
define i64 @avio_seek_time(ptr noundef %0, i32 noundef %1, i64 noundef %2, i32 noundef %3) #0 {
  %5 = alloca i64, align 8
  %6 = alloca ptr, align 8
  %7 = alloca i32, align 4
  %8 = alloca i64, align 8
  %9 = alloca i32, align 4
  %10 = alloca i64, align 8
  %11 = alloca i32, align 4
  %12 = alloca i64, align 8
  store ptr %0, ptr %6, align 8, !tbaa !14
  store i32 %1, ptr %7, align 4, !tbaa !11
  store i64 %2, ptr %8, align 8, !tbaa !53
  store i32 %3, ptr %9, align 4, !tbaa !11
  call void @llvm.lifetime.start.p0(i64 8, ptr %10) #12
  %13 = load ptr, ptr %6, align 8, !tbaa !14
  %14 = getelementptr inbounds nuw %struct.AVIOContext, ptr %13, i32 0, i32 19
  %15 = load ptr, ptr %14, align 8, !tbaa !40
  %16 = icmp ne ptr %15, null
  br i1 %16, label %18, label %17

17:                                               ; preds = %4
  store i64 -38, ptr %5, align 8
  store i32 1, ptr %11, align 4
  br label %59

18:                                               ; preds = %4
  %19 = load ptr, ptr %6, align 8, !tbaa !14
  %20 = getelementptr inbounds nuw %struct.AVIOContext, ptr %19, i32 0, i32 19
  %21 = load ptr, ptr %20, align 8, !tbaa !40
  %22 = load ptr, ptr %6, align 8, !tbaa !14
  %23 = getelementptr inbounds nuw %struct.AVIOContext, ptr %22, i32 0, i32 5
  %24 = load ptr, ptr %23, align 8, !tbaa !25
  %25 = load i32, ptr %7, align 4, !tbaa !11
  %26 = load i64, ptr %8, align 8, !tbaa !53
  %27 = load i32, ptr %9, align 4, !tbaa !11
  %28 = call i64 %21(ptr noundef %24, i32 noundef %25, i64 noundef %26, i32 noundef %27)
  store i64 %28, ptr %10, align 8, !tbaa !53
  %29 = load i64, ptr %10, align 8, !tbaa !53
  %30 = icmp sge i64 %29, 0
  br i1 %30, label %31, label %57

31:                                               ; preds = %18
  call void @llvm.lifetime.start.p0(i64 8, ptr %12) #12
  %32 = load ptr, ptr %6, align 8, !tbaa !14
  %33 = getelementptr inbounds nuw %struct.AVIOContext, ptr %32, i32 0, i32 4
  %34 = load ptr, ptr %33, align 8, !tbaa !38
  %35 = load ptr, ptr %6, align 8, !tbaa !14
  %36 = getelementptr inbounds nuw %struct.AVIOContext, ptr %35, i32 0, i32 3
  store ptr %34, ptr %36, align 8, !tbaa !23
  %37 = load ptr, ptr %6, align 8, !tbaa !14
  %38 = getelementptr inbounds nuw %struct.AVIOContext, ptr %37, i32 0, i32 8
  %39 = load ptr, ptr %38, align 8, !tbaa !29
  %40 = load ptr, ptr %6, align 8, !tbaa !14
  %41 = getelementptr inbounds nuw %struct.AVIOContext, ptr %40, i32 0, i32 5
  %42 = load ptr, ptr %41, align 8, !tbaa !25
  %43 = call i64 %39(ptr noundef %42, i64 noundef 0, i32 noundef 1)
  store i64 %43, ptr %12, align 8, !tbaa !53
  %44 = load i64, ptr %12, align 8, !tbaa !53
  %45 = icmp sge i64 %44, 0
  br i1 %45, label %46, label %50

46:                                               ; preds = %31
  %47 = load i64, ptr %12, align 8, !tbaa !53
  %48 = load ptr, ptr %6, align 8, !tbaa !14
  %49 = getelementptr inbounds nuw %struct.AVIOContext, ptr %48, i32 0, i32 9
  store i64 %47, ptr %49, align 8, !tbaa !30
  br label %56

50:                                               ; preds = %31
  %51 = load i64, ptr %12, align 8, !tbaa !53
  %52 = icmp ne i64 %51, -38
  br i1 %52, label %53, label %55

53:                                               ; preds = %50
  %54 = load i64, ptr %12, align 8, !tbaa !53
  store i64 %54, ptr %10, align 8, !tbaa !53
  br label %55

55:                                               ; preds = %53, %50
  br label %56

56:                                               ; preds = %55, %46
  call void @llvm.lifetime.end.p0(i64 8, ptr %12) #12
  br label %57

57:                                               ; preds = %56, %18
  %58 = load i64, ptr %10, align 8, !tbaa !53
  store i64 %58, ptr %5, align 8
  store i32 1, ptr %11, align 4
  br label %59

59:                                               ; preds = %57, %17
  call void @llvm.lifetime.end.p0(i64 8, ptr %10) #12
  %60 = load i64, ptr %5, align 8
  ret i64 %60
}