; Function Attrs: nounwind uwtable
define i64 @avio_seek_time(ptr noundef captures(none) %0, i32 noundef %1, i64 noundef %2, i32 noundef %3) local_unnamed_addr #3 {
  %5 = getelementptr inbounds nuw i8, ptr %0, i64 136
  %6 = load ptr, ptr %5, align 8, !tbaa !75
  %.not = icmp eq ptr %6, null
  br i1 %.not, label %24, label %7

7:                                                ; preds = %4
  %8 = getelementptr inbounds nuw i8, ptr %0, i64 40
  %9 = load ptr, ptr %8, align 8, !tbaa !18
  %10 = tail call i64 %6(ptr noundef %9, i32 noundef %1, i64 noundef %2, i32 noundef %3) #14
  %11 = icmp sgt i64 %10, -1
  br i1 %11, label %12, label %24

12:                                               ; preds = %7
  %13 = getelementptr inbounds nuw i8, ptr %0, i64 32
  %14 = load ptr, ptr %13, align 8, !tbaa !19
  %15 = getelementptr inbounds nuw i8, ptr %0, i64 24
  store ptr %14, ptr %15, align 8, !tbaa !16
  %16 = getelementptr inbounds nuw i8, ptr %0, i64 64
  %17 = load ptr, ptr %16, align 8, !tbaa !23
  %18 = load ptr, ptr %8, align 8, !tbaa !18
  %19 = tail call i64 %17(ptr noundef %18, i64 noundef 0, i32 noundef 1) #14
  %20 = icmp sgt i64 %19, -1
  br i1 %20, label %21, label %23

21:                                               ; preds = %12
  %22 = getelementptr inbounds nuw i8, ptr %0, i64 72
  store i64 %19, ptr %22, align 8, !tbaa !27
  br label %24

23:                                               ; preds = %12
  %.not23 = icmp eq i64 %19, -38
  %spec.select = select i1 %.not23, i64 %10, i64 %19
  br label %24

24:                                               ; preds = %23, %7, %21, %4
  %.0 = phi i64 [ -38, %4 ], [ %10, %7 ], [ %10, %21 ], [ %spec.select, %23 ]
  ret i64 %.0
}